target datalayout = "e-m:e-p270:32:32-p271:32:32-p272:64:64-i64:64-i128:128-f80:128-n8:16:32:64-S128"
target triple = "x86_64-pc-linux-gnu"

%struct._generic_N_Vector_Ops = type { ptr, ptr, ptr, ptr, ptr, ptr, ptr, ptr, ptr, ptr, ptr, ptr, ptr, ptr, ptr, ptr, ptr, ptr, ptr, ptr, ptr, ptr, ptr, ptr, ptr }
%struct._N_VectorContent_Serial = type { i64, i32, ptr }
%struct._generic_N_Vector = type { ptr, ptr }

; Function Attrs: nounwind uwtable
define ptr @N_VNewEmpty_Serial(i64 noundef %0) #0 {
  %2 = alloca ptr, align 8
  %3 = alloca i64, align 8
  %4 = alloca ptr, align 8
  %5 = alloca ptr, align 8
  %6 = alloca ptr, align 8
  %7 = alloca i32, align 4
  store i64 %0, ptr %3, align 8, !tbaa !3
  call void @llvm.lifetime.start.p0(i64 8, ptr %4) #6
  call void @llvm.lifetime.start.p0(i64 8, ptr %5) #6
  call void @llvm.lifetime.start.p0(i64 8, ptr %6) #6
  store ptr null, ptr %4, align 8, !tbaa !7
  %8 = call noalias ptr @malloc(i64 noundef 16) #7
  store ptr %8, ptr %4, align 8, !tbaa !7
  %9 = load ptr, ptr %4, align 8, !tbaa !7
  %10 = icmp eq ptr %9, null
  br i1 %10, label %11, label %12

11:                                               ; preds = %1
  store ptr null, ptr %2, align 8
  store i32 1, ptr %7, align 4
  br label %90

12:                                               ; preds = %1
  store ptr null, ptr %5, align 8, !tbaa !10
  %13 = call noalias ptr @malloc(i64 noundef 200) #7
  store ptr %13, ptr %5, align 8, !tbaa !10
  %14 = load ptr, ptr %5, align 8, !tbaa !10
  %15 = icmp eq ptr %14, null
  br i1 %15, label %16, label %18

16:                                               ; preds = %12
  %17 = load ptr, ptr %4, align 8, !tbaa !7
  call void @free(ptr noundef %17) #6
  store ptr null, ptr %2, align 8
  store i32 1, ptr %7, align 4
  br label %90

18:                                               ; preds = %12
  %19 = load ptr, ptr %5, align 8, !tbaa !10
  %20 = getelementptr inbounds nuw %struct._generic_N_Vector_Ops, ptr %19, i32 0, i32 0
  store ptr @N_VClone_Serial, ptr %20, align 8, !tbaa !12
  %21 = load ptr, ptr %5, align 8, !tbaa !10
  %22 = getelementptr inbounds nuw %struct._generic_N_Vector_Ops, ptr %21, i32 0, i32 1
  store ptr @N_VCloneEmpty_Serial, ptr %22, align 8, !tbaa !14
  %23 = load ptr, ptr %5, align 8, !tbaa !10
  %24 = getelementptr inbounds nuw %struct._generic_N_Vector_Ops, ptr %23, i32 0, i32 2
  store ptr @N_VDestroy_Serial, ptr %24, align 8, !tbaa !15
  %25 = load ptr, ptr %5, align 8, !tbaa !10
  %26 = getelementptr inbounds nuw %struct._generic_N_Vector_Ops, ptr %25, i32 0, i32 3
  store ptr @N_VSpace_Serial, ptr %26, align 8, !tbaa !16
  %27 = load ptr, ptr %5, align 8, !tbaa !10
  %28 = getelementptr inbounds nuw %struct._generic_N_Vector_Ops, ptr %27, i32 0, i32 4
  store ptr @N_VGetArrayPointer_Serial, ptr %28, align 8, !tbaa !17
  %29 = load ptr, ptr %5, align 8, !tbaa !10
  %30 = getelementptr inbounds nuw %struct._generic_N_Vector_Ops, ptr %29, i32 0, i32 5
  store ptr @N_VSetArrayPointer_Serial, ptr %30, align 8, !tbaa !18
  %31 = load ptr, ptr %5, align 8, !tbaa !10
  %32 = getelementptr inbounds nuw %struct._generic_N_Vector_Ops, ptr %31, i32 0, i32 6
  store ptr @N_VLinearSum_Serial, ptr %32, align 8, !tbaa !19
  %33 = load ptr, ptr %5, align 8, !tbaa !10
  %34 = getelementptr inbounds nuw %struct._generic_N_Vector_Ops, ptr %33, i32 0, i32 7
  store ptr @N_VConst_Serial, ptr %34, align 8, !tbaa !20
  %35 = load ptr, ptr %5, align 8, !tbaa !10
  %36 = getelementptr inbounds nuw %struct._generic_N_Vector_Ops, ptr %35, i32 0, i32 8
  store ptr @N_VProd_Serial, ptr %36, align 8, !tbaa !21
  %37 = load ptr, ptr %5, align 8, !tbaa !10
  %38 = getelementptr inbounds nuw %struct._generic_N_Vector_Ops, ptr %37, i32 0, i32 9
  store ptr @N_VDiv_Serial, ptr %38, align 8, !tbaa !22
  %39 = load ptr, ptr %5, align 8, !tbaa !10
  %40 = getelementptr inbounds nuw %struct._generic_N_Vector_Ops, ptr %39, i32 0, i32 10
  store ptr @N_VScale_Serial, ptr %40, align 8, !tbaa !23
  %41 = load ptr, ptr %5, align 8, !tbaa !10
  %42 = getelementptr inbounds nuw %struct._generic_N_Vector_Ops, ptr %41, i32 0, i32 11
  store ptr @N_VAbs_Serial, ptr %42, align 8, !tbaa !24
  %43 = load ptr, ptr %5, align 8, !tbaa !10
  %44 = getelementptr inbounds nuw %struct._generic_N_Vector_Ops, ptr %43, i32 0, i32 12
  store ptr @N_VInv_Serial, ptr %44, align 8, !tbaa !25
  %45 = load ptr, ptr %5, align 8, !tbaa !10
  %46 = getelementptr inbounds nuw %struct._generic_N_Vector_Ops, ptr %45, i32 0, i32 13
  store ptr @N_VAddConst_Serial, ptr %46, align 8, !tbaa !26
  %47 = load ptr, ptr %5, align 8, !tbaa !10
  %48 = getelementptr inbounds nuw %struct._generic_N_Vector_Ops, ptr %47, i32 0, i32 14
  store ptr @N_VDotProd_Serial, ptr %48, align 8, !tbaa !27
  %49 = load ptr, ptr %5, align 8, !tbaa !10
  %50 = getelementptr inbounds nuw %struct._generic_N_Vector_Ops, ptr %49, i32 0, i32 15
  store ptr @N_VMaxNorm_Serial, ptr %50, align 8, !tbaa !28
  %51 = load ptr, ptr %5, align 8, !tbaa !10
  %52 = getelementptr inbounds nuw %struct._generic_N_Vector_Ops, ptr %51, i32 0, i32 17
  store ptr @N_VWrmsNormMask_Serial, ptr %52, align 8, !tbaa !29
  %53 = load ptr, ptr %5, align 8, !tbaa !10
  %54 = getelementptr inbounds nuw %struct._generic_N_Vector_Ops, ptr %53, i32 0, i32 16
  store ptr @N_VWrmsNorm_Serial, ptr %54, align 8, !tbaa !30
  %55 = load ptr, ptr %5, align 8, !tbaa !10
  %56 = getelementptr inbounds nuw %struct._generic_N_Vector_Ops, ptr %55, i32 0, i32 18
  store ptr @N_VMin_Serial, ptr %56, align 8, !tbaa !31
  %57 = load ptr, ptr %5, align 8, !tbaa !10
  %58 = getelementptr inbounds nuw %struct._generic_N_Vector_Ops, ptr %57, i32 0, i32 19
  store ptr @N_VWL2Norm_Serial, ptr %58, align 8, !tbaa !32
  %59 = load ptr, ptr %5, align 8, !tbaa !10
  %60 = getelementptr inbounds nuw %struct._generic_N_Vector_Ops, ptr %59, i32 0, i32 20
  store ptr @N_VL1Norm_Serial, ptr %60, align 8, !tbaa !33
  %61 = load ptr, ptr %5, align 8, !tbaa !10
  %62 = getelementptr inbounds nuw %struct._generic_N_Vector_Ops, ptr %61, i32 0, i32 21
  store ptr @N_VCompare_Serial, ptr %62, align 8, !tbaa !34
  %63 = load ptr, ptr %5, align 8, !tbaa !10
  %64 = getelementptr inbounds nuw %struct._generic_N_Vector_Ops, ptr %63, i32 0, i32 22
  store ptr @N_VInvTest_Serial, ptr %64, align 8, !tbaa !35
  %65 = load ptr, ptr %5, align 8, !tbaa !10
  %66 = getelementptr inbounds nuw %struct._generic_N_Vector_Ops, ptr %65, i32 0, i32 23
  store ptr @N_VConstrMask_Serial, ptr %66, align 8, !tbaa !36
  %67 = load ptr, ptr %5, align 8, !tbaa !10
  %68 = getelementptr inbounds nuw %struct._generic_N_Vector_Ops, ptr %67, i32 0, i32 24
  store ptr @N_VMinQuotient_Serial, ptr %68, align 8, !tbaa !37
  store ptr null, ptr %6, align 8, !tbaa !38
  %69 = call noalias ptr @malloc(i64 noundef 24) #7
  store ptr %69, ptr %6, align 8, !tbaa !38
  %70 = load ptr, ptr %6, align 8, !tbaa !38
  %71 = icmp eq ptr %70, null
  br i1 %71, label %72, label %75

72:                                               ; preds = %18
  %73 = load ptr, ptr %5, align 8, !tbaa !10
  call void @free(ptr noundef %73) #6
  %74 = load ptr, ptr %4, align 8, !tbaa !7
  call void @free(ptr noundef %74) #6
  store ptr null, ptr %2, align 8
  store i32 1, ptr %7, align 4
  br label %90

75:                                               ; preds = %18
  %76 = load i64, ptr %3, align 8, !tbaa !3
  %77 = load ptr, ptr %6, align 8, !tbaa !38
  %78 = getelementptr inbounds nuw %struct._N_VectorContent_Serial, ptr %77, i32 0, i32 0
  store i64 %76, ptr %78, align 8, !tbaa !40
  %79 = load ptr, ptr %6, align 8, !tbaa !38
  %80 = getelementptr inbounds nuw %struct._N_VectorContent_Serial, ptr %79, i32 0, i32 1
  store i32 0, ptr %80, align 8, !tbaa !44
  %81 = load ptr, ptr %6, align 8, !tbaa !38
  %82 = getelementptr inbounds nuw %struct._N_VectorContent_Serial, ptr %81, i32 0, i32 2
  store ptr null, ptr %82, align 8, !tbaa !45
  %83 = load ptr, ptr %6, align 8, !tbaa !38
  %84 = load ptr, ptr %4, align 8, !tbaa !7
  %85 = getelementptr inbounds nuw %struct._generic_N_Vector, ptr %84, i32 0, i32 0
  store ptr %83, ptr %85, align 8, !tbaa !46
  %86 = load ptr, ptr %5, align 8, !tbaa !10
  %87 = load ptr, ptr %4, align 8, !tbaa !7
  %88 = getelementptr inbounds nuw %struct._generic_N_Vector, ptr %87, i32 0, i32 1
  store ptr %86, ptr %88, align 8, !tbaa !48
  %89 = load ptr, ptr %4, align 8, !tbaa !7
  store ptr %89, ptr %2, align 8
  store i32 1, ptr %7, align 4
  br label %90

90:                                               ; preds = %75, %72, %16, %11
  call void @llvm.lifetime.end.p0(i64 8, ptr %6) #6
  call void @llvm.lifetime.end.p0(i64 8, ptr %5) #6
  call void @llvm.lifetime.end.p0(i64 8, ptr %4) #6
  %91 = load ptr, ptr %2, align 8
  ret ptr %91
}