; Function Attrs: mustprogress nounwind willreturn memory(readwrite, argmem: none) uwtable
define noalias noundef ptr @N_VNewEmpty_Serial(i64 noundef %0) local_unnamed_addr #0 {
  %2 = tail call noalias dereferenceable_or_null(16) ptr @malloc(i64 noundef 16) #17
  %3 = icmp eq ptr %2, null
  br i1 %3, label %40, label %4

4:                                                ; preds = %1
  %5 = tail call noalias dereferenceable_or_null(200) ptr @malloc(i64 noundef 200) #17
  %6 = icmp eq ptr %5, null
  br i1 %6, label %7, label %8

7:                                                ; preds = %4
  tail call void @free(ptr noundef nonnull %2) #18
  br label %40

8:                                                ; preds = %4
  store ptr @N_VClone_Serial, ptr %5, align 8, !tbaa !3
  %9 = getelementptr inbounds nuw i8, ptr %5, i64 8
  store ptr @N_VCloneEmpty_Serial, ptr %9, align 8, !tbaa !8
  %10 = getelementptr inbounds nuw i8, ptr %5, i64 16
  store ptr @N_VDestroy_Serial, ptr %10, align 8, !tbaa !9
  %11 = getelementptr inbounds nuw i8, ptr %5, i64 24
  store ptr @N_VSpace_Serial, ptr %11, align 8, !tbaa !10
  %12 = getelementptr inbounds nuw i8, ptr %5, i64 32
  store ptr @N_VGetArrayPointer_Serial, ptr %12, align 8, !tbaa !11
  %13 = getelementptr inbounds nuw i8, ptr %5, i64 40
  store ptr @N_VSetArrayPointer_Serial, ptr %13, align 8, !tbaa !12
  %14 = getelementptr inbounds nuw i8, ptr %5, i64 48
  store ptr @N_VLinearSum_Serial, ptr %14, align 8, !tbaa !13
  %15 = getelementptr inbounds nuw i8, ptr %5, i64 56
  store ptr @N_VConst_Serial, ptr %15, align 8, !tbaa !14
  %16 = getelementptr inbounds nuw i8, ptr %5, i64 64
  store ptr @N_VProd_Serial, ptr %16, align 8, !tbaa !15
  %17 = getelementptr inbounds nuw i8, ptr %5, i64 72
  store ptr @N_VDiv_Serial, ptr %17, align 8, !tbaa !16
  %18 = getelementptr inbounds nuw i8, ptr %5, i64 80
  store ptr @N_VScale_Serial, ptr %18, align 8, !tbaa !17
  %19 = getelementptr inbounds nuw i8, ptr %5, i64 88
  store ptr @N_VAbs_Serial, ptr %19, align 8, !tbaa !18
  %20 = getelementptr inbounds nuw i8, ptr %5, i64 96
  store ptr @N_VInv_Serial, ptr %20, align 8, !tbaa !19
  %21 = getelementptr inbounds nuw i8, ptr %5, i64 104
  store ptr @N_VAddConst_Serial, ptr %21, align 8, !tbaa !20
  %22 = getelementptr inbounds nuw i8, ptr %5, i64 112
  store ptr @N_VDotProd_Serial, ptr %22, align 8, !tbaa !21
  %23 = getelementptr inbounds nuw i8, ptr %5, i64 120
  store ptr @N_VMaxNorm_Serial, ptr %23, align 8, !tbaa !22
  %24 = getelementptr inbounds nuw i8, ptr %5, i64 136
  store ptr @N_VWrmsNormMask_Serial, ptr %24, align 8, !tbaa !23
  %25 = getelementptr inbounds nuw i8, ptr %5, i64 128
  store ptr @N_VWrmsNorm_Serial, ptr %25, align 8, !tbaa !24
  %26 = getelementptr inbounds nuw i8, ptr %5, i64 144
  store ptr @N_VMin_Serial, ptr %26, align 8, !tbaa !25
  %27 = getelementptr inbounds nuw i8, ptr %5, i64 152
  store ptr @N_VWL2Norm_Serial, ptr %27, align 8, !tbaa !26
  %28 = getelementptr inbounds nuw i8, ptr %5, i64 160
  store ptr @N_VL1Norm_Serial, ptr %28, align 8, !tbaa !27
  %29 = getelementptr inbounds nuw i8, ptr %5, i64 168
  store ptr @N_VCompare_Serial, ptr %29, align 8, !tbaa !28
  %30 = getelementptr inbounds nuw i8, ptr %5, i64 176
  store ptr @N_VInvTest_Serial, ptr %30, align 8, !tbaa !29
  %31 = getelementptr inbounds nuw i8, ptr %5, i64 184
  store ptr @N_VConstrMask_Serial, ptr %31, align 8, !tbaa !30
  %32 = getelementptr inbounds nuw i8, ptr %5, i64 192
  store ptr @N_VMinQuotient_Serial, ptr %32, align 8, !tbaa !31
  %33 = tail call noalias dereferenceable_or_null(24) ptr @malloc(i64 noundef 24) #17
  %34 = icmp eq ptr %33, null
  br i1 %34, label %35, label %36

35:                                               ; preds = %8
  tail call void @free(ptr noundef nonnull %5) #18
  tail call void @free(ptr noundef nonnull %2) #18
  br label %40

36:                                               ; preds = %8
  store i64 %0, ptr %33, align 8, !tbaa !32
  %37 = getelementptr inbounds nuw i8, ptr %33, i64 8
  store i32 0, ptr %37, align 8, !tbaa !37
  %38 = getelementptr inbounds nuw i8, ptr %33, i64 16
  store ptr null, ptr %38, align 8, !tbaa !38
  store ptr %33, ptr %2, align 8, !tbaa !39
  %39 = getelementptr inbounds nuw i8, ptr %2, i64 8
  store ptr %5, ptr %39, align 8, !tbaa !42
  br label %40

40:                                               ; preds = %1, %36, %35, %7
  %.0 = phi ptr [ null, %7 ], [ null, %35 ], [ %2, %36 ], [ null, %1 ]
  ret ptr %.0
}